LIBRARY    mytest_cpp
EXPORTS 
	?G__mytest_cpp_ACLiC_dictLN_TMatrixTlEdoublegR@@3UG__linked_taginfo@@A 	 DATA
	?G__mytest_cpp_ACLiC_dictLN_iteratorlErandom_access_iterator_tagcOcharcOlongcOcharmUcOcharaNgR@@3UG__linked_taginfo@@A 	 DATA
	?G__mytest_cpp_ACLiC_dictLN_vectorlEunsignedsPintcOallocatorlEunsignedsPintgRsPgR@@3UG__linked_taginfo@@A 	 DATA
	?G__mytest_cpp_ACLiC_dictLN_vectorlEfloatcOallocatorlEfloatgRsPgR@@3UG__linked_taginfo@@A 	 DATA
	?G__mytest_cpp_ACLiC_dictLN_vectorlEdoublecOallocatorlEdoublegRsPgR@@3UG__linked_taginfo@@A 	 DATA
	?G__mytest_cpp_ACLiC_dictLN_vectorlEROOTcLcLTSchemaHelpercOallocatorlEROOTcLcLTSchemaHelpergRsPgR@@3UG__linked_taginfo@@A 	 DATA
	?G__mytest_cpp_ACLiC_dictLN_reverse_iteratorlEvectorlEROOTcLcLTSchemaHelpercOallocatorlEROOTcLcLTSchemaHelpergRsPgRcLcLiteratorgR@@3UG__linked_taginfo@@A 	 DATA
	?G__mytest_cpp_ACLiC_dictLN_iteratorlErandom_access_iterator_tagcOROOTcLcLTSchemaHelpercOlongcOROOTcLcLTSchemaHelpermUcOROOTcLcLTSchemaHelperaNgR@@3UG__linked_taginfo@@A 	 DATA
	?G__mytest_cpp_ACLiC_dictLN_reverse_iteratorlEvectorlEROOTcLcLTSchemaHelpercOallocatorlEROOTcLcLTSchemaHelpergRsPgRcLcLconst_iteratorgR@@3UG__linked_taginfo@@A 	 DATA
	?G__mytest_cpp_ACLiC_dictLN_vectorlETVirtualArraymUcOallocatorlETVirtualArraymUgRsPgR@@3UG__linked_taginfo@@A 	 DATA
	?G__mytest_cpp_ACLiC_dictLN_reverse_iteratorlEvectorlETVirtualArraymUcOallocatorlETVirtualArraymUgRsPgRcLcLiteratorgR@@3UG__linked_taginfo@@A 	 DATA
	?G__mytest_cpp_ACLiC_dictLN_iteratorlErandom_access_iterator_tagcOTVirtualArraymUcOlongcOTVirtualArraymUmUcOTVirtualArraymUaNgR@@3UG__linked_taginfo@@A 	 DATA
	?G__mytest_cpp_ACLiC_dictLN_reverse_iteratorlEvectorlETVirtualArraymUcOallocatorlETVirtualArraymUgRsPgRcLcLconst_iteratorgR@@3UG__linked_taginfo@@A 	 DATA
	?G__mytest_cpp_ACLiC_dictLN_iteratorlEbidirectional_iterator_tagcOTObjectmUcOlongcOconstsPTObjectmUmUcOconstsPTObjectmUaNgR@@3UG__linked_taginfo@@A 	 DATA
	?G__mytest_cpp_ACLiC_dictLN_maplETStringcOTMVAcLcLTypescLcLEMVAcOlesslETStringgRcOallocatorlEpairlEconstsPTStringcOTMVAcLcLTypescLcLEMVAgRsPgRsPgR@@3UG__linked_taginfo@@A 	 DATA
	?G__mytest_cpp_ACLiC_dictLN_maplETMVAcLcLEMsgTypecOstringcOlesslETMVAcLcLEMsgTypegRcOallocatorlEpairlEconstsPTMVAcLcLEMsgTypecOstringgRsPgRsPgR@@3UG__linked_taginfo@@A 	 DATA
	?G__mytest_cpp_ACLiC_dictLN_vectorlETStringcOallocatorlETStringgRsPgR@@3UG__linked_taginfo@@A 	 DATA
	?G__mytest_cpp_ACLiC_dictLN_reverse_iteratorlEvectorlETStringcOallocatorlETStringgRsPgRcLcLiteratorgR@@3UG__linked_taginfo@@A 	 DATA
	?G__mytest_cpp_ACLiC_dictLN_iteratorlErandom_access_iterator_tagcOTStringcOlongcOTStringmUcOTStringaNgR@@3UG__linked_taginfo@@A 	 DATA
	?G__mytest_cpp_ACLiC_dictLN_reverse_iteratorlEvectorlETStringcOallocatorlETStringgRsPgRcLcLconst_iteratorgR@@3UG__linked_taginfo@@A 	 DATA
	?G__mytest_cpp_ACLiC_dictLN_maplEstringcOTObjArraymUcOlesslEstringgRcOallocatorlEpairlEconstsPstringcOTObjArraymUgRsPgRsPgR@@3UG__linked_taginfo@@A 	 DATA
	?G__mytest_cpp_ACLiC_dictLN_vectorlEfloatmUcOallocatorlEfloatmUgRsPgR@@3UG__linked_taginfo@@A 	 DATA
	?G__mytest_cpp_ACLiC_dictLN_reverse_iteratorlEvectorlEfloatmUcOallocatorlEfloatmUgRsPgRcLcLiteratorgR@@3UG__linked_taginfo@@A 	 DATA
	?G__mytest_cpp_ACLiC_dictLN_iteratorlErandom_access_iterator_tagcOfloatmUcOlongcOfloatmUmUcOfloatmUaNgR@@3UG__linked_taginfo@@A 	 DATA
	?G__mytest_cpp_ACLiC_dictLN_reverse_iteratorlEvectorlEfloatmUcOallocatorlEfloatmUgRsPgRcLcLconst_iteratorgR@@3UG__linked_taginfo@@A 	 DATA
	?G__mytest_cpp_ACLiC_dictLN_vectorlETMVAcLcLVariableInfocOallocatorlETMVAcLcLVariableInfogRsPgR@@3UG__linked_taginfo@@A 	 DATA
	?G__mytest_cpp_ACLiC_dictLN_reverse_iteratorlEvectorlETMVAcLcLVariableInfocOallocatorlETMVAcLcLVariableInfogRsPgRcLcLiteratorgR@@3UG__linked_taginfo@@A 	 DATA
	?G__mytest_cpp_ACLiC_dictLN_iteratorlErandom_access_iterator_tagcOTMVAcLcLVariableInfocOlongcOTMVAcLcLVariableInfomUcOTMVAcLcLVariableInfoaNgR@@3UG__linked_taginfo@@A 	 DATA
	?G__mytest_cpp_ACLiC_dictLN_reverse_iteratorlEvectorlETMVAcLcLVariableInfocOallocatorlETMVAcLcLVariableInfogRsPgRcLcLconst_iteratorgR@@3UG__linked_taginfo@@A 	 DATA
	?G__mytest_cpp_ACLiC_dictLN_vectorlETMVAcLcLClassInfomUcOallocatorlETMVAcLcLClassInfomUgRsPgR@@3UG__linked_taginfo@@A 	 DATA
	?G__mytest_cpp_ACLiC_dictLN_reverse_iteratorlEvectorlETMVAcLcLClassInfomUcOallocatorlETMVAcLcLClassInfomUgRsPgRcLcLiteratorgR@@3UG__linked_taginfo@@A 	 DATA
	?G__mytest_cpp_ACLiC_dictLN_iteratorlErandom_access_iterator_tagcOTMVAcLcLClassInfomUcOlongcOTMVAcLcLClassInfomUmUcOTMVAcLcLClassInfomUaNgR@@3UG__linked_taginfo@@A 	 DATA
	?G__mytest_cpp_ACLiC_dictLN_reverse_iteratorlEvectorlETMVAcLcLClassInfomUcOallocatorlETMVAcLcLClassInfomUgRsPgRcLcLconst_iteratorgR@@3UG__linked_taginfo@@A 	 DATA
	?G__mytest_cpp_ACLiC_dictLN_vectorlETMVAcLcLTreeInfocOallocatorlETMVAcLcLTreeInfogRsPgR@@3UG__linked_taginfo@@A 	 DATA
	?G__mytest_cpp_ACLiC_dictLN_reverse_iteratorlEvectorlETMVAcLcLTreeInfocOallocatorlETMVAcLcLTreeInfogRsPgRcLcLiteratorgR@@3UG__linked_taginfo@@A 	 DATA
	?G__mytest_cpp_ACLiC_dictLN_iteratorlErandom_access_iterator_tagcOTMVAcLcLTreeInfocOlongcOTMVAcLcLTreeInfomUcOTMVAcLcLTreeInfoaNgR@@3UG__linked_taginfo@@A 	 DATA
	?G__mytest_cpp_ACLiC_dictLN_reverse_iteratorlEvectorlETMVAcLcLTreeInfocOallocatorlETMVAcLcLTreeInfogRsPgRcLcLconst_iteratorgR@@3UG__linked_taginfo@@A 	 DATA
	?G__mytest_cpp_ACLiC_dictLN_maplETStringcOvectorlETMVAcLcLTreeInfocOallocatorlETMVAcLcLTreeInfogRsPgRcOlesslETStringgRcOallocatorlEpairlEconstsPTStringcOvectorlETMVAcLcLTreeInfocOallocatorlETMVAcLcLTreeInfogRsPgRsPgRsPgRsPgR@@3UG__linked_taginfo@@A 	 DATA
	?G__mytest_cpp_ACLiC_dictLN_maplEstringcOboolcOlesslEstringgRcOallocatorlEpairlEconstsPstringcOboolgRsPgRsPgR@@3UG__linked_taginfo@@A 	 DATA
	?G__mytest_cpp_ACLiC_dictLN_vectorlEstringcOallocatorlEstringgRsPgR@@3UG__linked_taginfo@@A 	 DATA
	?G__mytest_cpp_ACLiC_dictLN_reverse_iteratorlEvectorlEstringcOallocatorlEstringgRsPgRcLcLiteratorgR@@3UG__linked_taginfo@@A 	 DATA
	?G__mytest_cpp_ACLiC_dictLN_iteratorlErandom_access_iterator_tagcOstringcOlongcOstringmUcOstringaNgR@@3UG__linked_taginfo@@A 	 DATA
	?G__mytest_cpp_ACLiC_dictLN_reverse_iteratorlEvectorlEstringcOallocatorlEstringgRsPgRcLcLconst_iteratorgR@@3UG__linked_taginfo@@A 	 DATA
	?G__mytest_cpp_ACLiC_dictLN_maplETStringcOTMVAcLcLIMethodmUcOlesslETStringgRcOallocatorlEpairlEconstsPTStringcOTMVAcLcLIMethodmUgRsPgRsPgR@@3UG__linked_taginfo@@A 	 DATA
	?__empty_global_delete@@YAXPAX@Z
	?__empty_global_delete@@YAXPAXI@Z
	G__cpp_dllrevmytest_cpp_ACLiC_dict
	G__set_cpp_environmentmytest_cpp_ACLiC_dict
	G__cpp_setup_tagtablemytest_cpp_ACLiC_dict
	G__cpp_setup_inheritancemytest_cpp_ACLiC_dict
	G__cpp_setup_typetablemytest_cpp_ACLiC_dict
	G__cpp_setup_memvarmytest_cpp_ACLiC_dict
	G__cpp_setup_globalmytest_cpp_ACLiC_dict
	G__cpp_setup_memfuncmytest_cpp_ACLiC_dict
	G__cpp_setup_funcmytest_cpp_ACLiC_dict
	G__cpp_setupmytest_cpp_ACLiC_dict
	??2@YAPAXIPAX@Z
	?length@?$char_traits@D@std@@SAIPBD@Z
	?eq_int_type@?$char_traits@D@std@@SA_NABH0@Z
	?eof@?$char_traits@D@std@@SAHXZ
	?_Orphan_all@_Container_base0@std@@QAEXXZ
	?_Allocate@std@@YAPAXII_N@Z
	?_Deallocate@std@@YAXPAXII@Z
	??$?6U?$char_traits@D@std@@@std@@YAAAV?$basic_ostream@DU?$char_traits@D@std@@@0@AAV10@PBD@Z
	?mytest@@YAXXZ
	??$endl@DU?$char_traits@D@std@@@std@@YAAAV?$basic_ostream@DU?$char_traits@D@std@@@0@AAV10@@Z
	??0?$allocator@N@std@@QAE@XZ
	??0?$allocator@N@std@@QAE@ABV01@@Z
	?deallocate@?$allocator@N@std@@QAEXPANI@Z
	?allocate@?$allocator@N@std@@QAEPANI@Z
	?max_size@?$allocator@N@std@@QBEIXZ
	?max_size@?$allocator_traits@V?$allocator@N@std@@@std@@SAIABV?$allocator@N@2@@Z
	??0?$_Wrap_alloc@V?$allocator@N@std@@@std@@QAE@ABV?$allocator@N@1@@Z
	?allocate@?$_Wrap_alloc@V?$allocator@N@std@@@std@@QAEPANI@Z
	?deallocate@?$_Wrap_alloc@V?$allocator@N@std@@@std@@QAEXPANI@Z
	?max_size@?$_Wrap_alloc@V?$allocator@N@std@@@std@@QBEIU_Nil@2@@Z
	??0?$_Vector_alloc@U?$_Vec_base_types@NV?$allocator@N@std@@@std@@@std@@QAE@ABV?$allocator@N@1@@Z
	?_Orphan_all@?$_Vector_alloc@U?$_Vec_base_types@NV?$allocator@N@std@@@std@@@std@@QAEXXZ
	?_Getal@?$_Vector_alloc@U?$_Vec_base_types@NV?$allocator@N@std@@@std@@@std@@QAEAAU?$_Wrap_alloc@V?$allocator@N@std@@@2@XZ
	?_Getal@?$_Vector_alloc@U?$_Vec_base_types@NV?$allocator@N@std@@@std@@@std@@QBEABU?$_Wrap_alloc@V?$allocator@N@std@@@2@XZ
	?_Get_data@?$_Vector_alloc@U?$_Vec_base_types@NV?$allocator@N@std@@@std@@@std@@QAEAAV?$_Vector_val@U?$_Simple_types@N@std@@@2@XZ
	?_Get_data@?$_Vector_alloc@U?$_Vec_base_types@NV?$allocator@N@std@@@std@@@std@@QBEABV?$_Vector_val@U?$_Simple_types@N@std@@@2@XZ
	?_Myfirst@?$_Vector_alloc@U?$_Vec_base_types@NV?$allocator@N@std@@@std@@@std@@QAEAAPANXZ
	?_Myfirst@?$_Vector_alloc@U?$_Vec_base_types@NV?$allocator@N@std@@@std@@@std@@QBEABQANXZ
	?_Mylast@?$_Vector_alloc@U?$_Vec_base_types@NV?$allocator@N@std@@@std@@@std@@QAEAAPANXZ
	?_Mylast@?$_Vector_alloc@U?$_Vec_base_types@NV?$allocator@N@std@@@std@@@std@@QBEABQANXZ
	?_Myend@?$_Vector_alloc@U?$_Vec_base_types@NV?$allocator@N@std@@@std@@@std@@QAEAAPANXZ
	?_Myend@?$_Vector_alloc@U?$_Vec_base_types@NV?$allocator@N@std@@@std@@@std@@QBEABQANXZ
	??0?$_Vector_val@U?$_Simple_types@N@std@@@std@@QAE@XZ
	?_Get_first@?$_Compressed_pair@U?$_Wrap_alloc@V?$allocator@N@std@@@std@@V?$_Vector_val@U?$_Simple_types@N@std@@@2@$00@std@@QAEAAU?$_Wrap_alloc@V?$allocator@N@std@@@2@XZ
	?_Get_first@?$_Compressed_pair@U?$_Wrap_alloc@V?$allocator@N@std@@@std@@V?$_Vector_val@U?$_Simple_types@N@std@@@2@$00@std@@QBEABU?$_Wrap_alloc@V?$allocator@N@std@@@2@XZ
	?_Get_second@?$_Compressed_pair@U?$_Wrap_alloc@V?$allocator@N@std@@@std@@V?$_Vector_val@U?$_Simple_types@N@std@@@2@$00@std@@QAEAAV?$_Vector_val@U?$_Simple_types@N@std@@@2@XZ
	?_Get_second@?$_Compressed_pair@U?$_Wrap_alloc@V?$allocator@N@std@@@std@@V?$_Vector_val@U?$_Simple_types@N@std@@@2@$00@std@@QBEABV?$_Vector_val@U?$_Simple_types@N@std@@@2@XZ
	??0?$vector@NV?$allocator@N@std@@@std@@QAE@XZ
	?push_back@?$vector@NV?$allocator@N@std@@@std@@QAEX$$QAN@Z
	??1?$vector@NV?$allocator@N@std@@@std@@QAE@XZ
	?capacity@?$vector@NV?$allocator@N@std@@@std@@QBEIXZ
	?_Unused_capacity@?$vector@NV?$allocator@N@std@@@std@@QBEIXZ
	?size@?$vector@NV?$allocator@N@std@@@std@@QBEIXZ
	?max_size@?$vector@NV?$allocator@N@std@@@std@@QBEIXZ
	?clear@?$vector@NV?$allocator@N@std@@@std@@QAEXXZ
	?_Destroy@?$vector@NV?$allocator@N@std@@@std@@IAEXPAN0@Z
	?_Grow_to@?$vector@NV?$allocator@N@std@@@std@@IBEII@Z
	?_Inside@?$vector@NV?$allocator@N@std@@@std@@IBE_NPBN@Z
	?_Reallocate@?$vector@NV?$allocator@N@std@@@std@@IAEXI@Z
	?_Reserve@?$vector@NV?$allocator@N@std@@@std@@IAEXI@Z
	?_Tidy@?$vector@NV?$allocator@N@std@@@std@@IAEXXZ
	?_Xlen@?$vector@NV?$allocator@N@std@@@std@@IBEXXZ
	?_Orphan_range@?$vector@NV?$allocator@N@std@@@std@@IBEXPAN0@Z
	G__cpp_reset_tagtablemytest_cpp_ACLiC_dict
	??0G__Sizep2memfuncmytest_cpp_ACLiC_dict@@QAE@XZ
	?sizep2memfunc@G__Sizep2memfuncmytest_cpp_ACLiC_dict@@QAEIXZ
	?G__get_sizep2memfuncmytest_cpp_ACLiC_dict@@YAIXZ
	??0G__cpp_setup_initmytest_cpp_ACLiC_dict@@QAE@XZ
	??1G__cpp_setup_initmytest_cpp_ACLiC_dict@@QAE@XZ
	??$addressof@N@std@@YAPANAAN@Z
	??$forward@N@std@@YA$$QANAAN@Z
	??$construct@NN@?$_Wrap_alloc@V?$allocator@N@std@@@std@@QAEXPAN$$QAN@Z
	??0_Sentry_base@?$basic_ostream@DU?$char_traits@D@std@@@std@@QAE@AAV12@@Z
	??1_Sentry_base@?$basic_ostream@DU?$char_traits@D@std@@@std@@QAE@XZ
	??0sentry@?$basic_ostream@DU?$char_traits@D@std@@@std@@QAE@AAV12@@Z
	??1sentry@?$basic_ostream@DU?$char_traits@D@std@@@std@@QAE@XZ
	??Bsentry@?$basic_ostream@DU?$char_traits@D@std@@@std@@QBE_NXZ
	??$?0ABV?$allocator@N@std@@$$V@?$_Compressed_pair@U?$_Wrap_alloc@V?$allocator@N@std@@@std@@V?$_Vector_val@U?$_Simple_types@N@std@@@2@$00@std@@QAE@U_One_then_variadic_args_t@1@ABV?$allocator@N@1@@Z
	??$_Destroy_range@U?$_Wrap_alloc@V?$allocator@N@std@@@std@@@std@@YAXPAN0AAU?$_Wrap_alloc@V?$allocator@N@std@@@0@@Z
	??$_Umove@PAN@?$vector@NV?$allocator@N@std@@@std@@IAEPANPAN00@Z
	??$_Addressof@N@std@@YAPANAANU?$integral_constant@_N$0A@@0@@Z
	??$construct@NN@?$allocator_traits@V?$allocator@N@std@@@std@@SAXAAV?$allocator@N@1@PAN$$QAN@Z
	??$forward@ABV?$allocator@N@std@@@std@@YAABV?$allocator@N@0@ABV10@@Z
	??$_Ptr_cat@NN@std@@YA?AU_Scalar_ptr_iterator_tag@0@PAN0@Z
	??$_Destroy_range@U?$_Wrap_alloc@V?$allocator@N@std@@@std@@@std@@YAXPAN0AAU?$_Wrap_alloc@V?$allocator@N@std@@@0@U_Scalar_ptr_iterator_tag@0@@Z
	??$_Uninitialized_move@PANPANU?$_Wrap_alloc@V?$allocator@N@std@@@std@@@std@@YAPANPAN00AAU?$_Wrap_alloc@V?$allocator@N@std@@@0@@Z
	??$construct@NN@?$allocator@N@std@@QAEXPAN$$QAN@Z
	??$_Unchecked@PAN@std@@YAPANPAN@Z
	??$_Uninit_move@PANPANU?$_Wrap_alloc@V?$allocator@N@std@@@std@@@std@@YAPANPAN00AAU?$_Wrap_alloc@V?$allocator@N@std@@@0@@Z
	??$_Rechecked@PANPAN@std@@YAAAPANAAPANPAN@Z
	??$_Val_type@PAN@std@@YAPANPAN@Z
	??$_Uninit_move@NNN@std@@YAPANPAN00AAU?$_Wrap_alloc@V?$allocator@N@std@@@0@0U_Scalar_ptr_iterator_tag@0@@Z
	?G__cpp_setup_initializermytest_cpp_ACLiC_dict@@3VG__cpp_setup_initmytest_cpp_ACLiC_dict@@A 	 DATA
